; ModuleID = '37/1540.c'
source_filename = "37/1540.c"
target datalayout = "e-m:e-p270:32:32-p271:32:32-p272:64:64-i64:64-f80:128-n8:16:32:64-S128"
target triple = "x86_64-pc-linux-gnu"

@.str = private unnamed_addr constant [3 x i8] c"%d\00", align 1
@.str.1 = private unnamed_addr constant [3 x i8] c"%s\00", align 1
@.str.2 = private unnamed_addr constant [4 x i8] c"%c\0A\00", align 1
@.str.3 = private unnamed_addr constant [4 x i8] c"no\0A\00", align 1

; Function Attrs: noinline nounwind uwtable
define dso_local i32 @main() #0 {
  %1 = alloca i32, align 4
  %2 = alloca i32, align 4
  %3 = alloca i32, align 4
  %4 = alloca i32, align 4
  %5 = alloca i32, align 4
  %6 = alloca i32, align 4
  %7 = alloca i32, align 4
  %8 = alloca [101 x [100001 x i8]], align 16
  store i32 0, i32* %1, align 4
  store i32 0, i32* %7, align 4
  %9 = call i32 (i8*, ...) @__isoc99_scanf(i8* getelementptr inbounds ([3 x i8], [3 x i8]* @.str, i64 0, i64 0), i32* %2)
  store i32 0, i32* %3, align 4
  br label %10

10:                                               ; preds = %126, %0
  %11 = load i32, i32* %3, align 4
  %12 = load i32, i32* %2, align 4
  %13 = icmp slt i32 %11, %12
  br i1 %13, label %14, label %129

14:                                               ; preds = %10
  %15 = load i32, i32* %3, align 4
  %16 = sext i32 %15 to i64
  %17 = getelementptr inbounds [101 x [100001 x i8]], [101 x [100001 x i8]]* %8, i64 0, i64 %16
  %18 = getelementptr inbounds [100001 x i8], [100001 x i8]* %17, i64 0, i64 0
  %19 = call i32 (i8*, ...) @__isoc99_scanf(i8* getelementptr inbounds ([3 x i8], [3 x i8]* @.str.1, i64 0, i64 0), i8* %18)
  store i32 0, i32* %7, align 4
  store i32 0, i32* %4, align 4
  br label %20

20:                                               ; preds = %111, %14
  %21 = load i32, i32* %4, align 4
  %22 = sext i32 %21 to i64
  %23 = load i32, i32* %3, align 4
  %24 = sext i32 %23 to i64
  %25 = getelementptr inbounds [101 x [100001 x i8]], [101 x [100001 x i8]]* %8, i64 0, i64 %24
  %26 = getelementptr inbounds [100001 x i8], [100001 x i8]* %25, i64 0, i64 0
  %27 = call i64 @strlen(i8* %26) #3
  %28 = icmp ult i64 %22, %27
  br i1 %28, label %29, label %114

29:                                               ; preds = %20
  store i32 0, i32* %6, align 4
  store i32 0, i32* %5, align 4
  br label %30

30:                                               ; preds = %84, %29
  %31 = load i32, i32* %5, align 4
  %32 = sext i32 %31 to i64
  %33 = load i32, i32* %3, align 4
  %34 = sext i32 %33 to i64
  %35 = getelementptr inbounds [101 x [100001 x i8]], [101 x [100001 x i8]]* %8, i64 0, i64 %34
  %36 = getelementptr inbounds [100001 x i8], [100001 x i8]* %35, i64 0, i64 0
  %37 = call i64 @strlen(i8* %36) #3
  %38 = icmp ult i64 %32, %37
  br i1 %38, label %39, label %87

39:                                               ; preds = %30
  %40 = load i32, i32* %3, align 4
  %41 = sext i32 %40 to i64
  %42 = getelementptr inbounds [101 x [100001 x i8]], [101 x [100001 x i8]]* %8, i64 0, i64 %41
  %43 = load i32, i32* %4, align 4
  %44 = sext i32 %43 to i64
  %45 = getelementptr inbounds [100001 x i8], [100001 x i8]* %42, i64 0, i64 %44
  %46 = load i8, i8* %45, align 1
  %47 = sext i8 %46 to i32
  %48 = load i32, i32* %3, align 4
  %49 = sext i32 %48 to i64
  %50 = getelementptr inbounds [101 x [100001 x i8]], [101 x [100001 x i8]]* %8, i64 0, i64 %49
  %51 = load i32, i32* %5, align 4
  %52 = sext i32 %51 to i64
  %53 = getelementptr inbounds [100001 x i8], [100001 x i8]* %50, i64 0, i64 %52
  %54 = load i8, i8* %53, align 1
  %55 = sext i8 %54 to i32
  %56 = icmp eq i32 %47, %55
  br i1 %56, label %57, label %62

57:                                               ; preds = %39
  %58 = load i32, i32* %4, align 4
  %59 = load i32, i32* %5, align 4
  %60 = icmp ne i32 %58, %59
  br i1 %60, label %61, label %62

61:                                               ; preds = %57
  br label %87

62:                                               ; preds = %57, %39
  %63 = load i32, i32* %3, align 4
  %64 = sext i32 %63 to i64
  %65 = getelementptr inbounds [101 x [100001 x i8]], [101 x [100001 x i8]]* %8, i64 0, i64 %64
  %66 = load i32, i32* %4, align 4
  %67 = sext i32 %66 to i64
  %68 = getelementptr inbounds [100001 x i8], [100001 x i8]* %65, i64 0, i64 %67
  %69 = load i8, i8* %68, align 1
  %70 = sext i8 %69 to i32
  %71 = load i32, i32* %3, align 4
  %72 = sext i32 %71 to i64
  %73 = getelementptr inbounds [101 x [100001 x i8]], [101 x [100001 x i8]]* %8, i64 0, i64 %72
  %74 = load i32, i32* %5, align 4
  %75 = sext i32 %74 to i64
  %76 = getelementptr inbounds [100001 x i8], [100001 x i8]* %73, i64 0, i64 %75
  %77 = load i8, i8* %76, align 1
  %78 = sext i8 %77 to i32
  %79 = icmp ne i32 %70, %78
  br i1 %79, label %80, label %83

80:                                               ; preds = %62
  %81 = load i32, i32* %6, align 4
  %82 = add nsw i32 %81, 1
  store i32 %82, i32* %6, align 4
  br label %83

83:                                               ; preds = %80, %62
  br label %84

84:                                               ; preds = %83
  %85 = load i32, i32* %5, align 4
  %86 = add nsw i32 %85, 1
  store i32 %86, i32* %5, align 4
  br label %30

87:                                               ; preds = %61, %30
  %88 = load i32, i32* %6, align 4
  %89 = sext i32 %88 to i64
  %90 = load i32, i32* %3, align 4
  %91 = sext i32 %90 to i64
  %92 = getelementptr inbounds [101 x [100001 x i8]], [101 x [100001 x i8]]* %8, i64 0, i64 %91
  %93 = getelementptr inbounds [100001 x i8], [100001 x i8]* %92, i64 0, i64 0
  %94 = call i64 @strlen(i8* %93) #3
  %95 = sub i64 %94, 1
  %96 = icmp eq i64 %89, %95
  br i1 %96, label %97, label %107

97:                                               ; preds = %87
  %98 = load i32, i32* %3, align 4
  %99 = sext i32 %98 to i64
  %100 = getelementptr inbounds [101 x [100001 x i8]], [101 x [100001 x i8]]* %8, i64 0, i64 %99
  %101 = load i32, i32* %4, align 4
  %102 = sext i32 %101 to i64
  %103 = getelementptr inbounds [100001 x i8], [100001 x i8]* %100, i64 0, i64 %102
  %104 = load i8, i8* %103, align 1
  %105 = sext i8 %104 to i32
  %106 = call i32 (i8*, ...) @printf(i8* getelementptr inbounds ([4 x i8], [4 x i8]* @.str.2, i64 0, i64 0), i32 %105)
  br label %114

107:                                              ; preds = %87
  %108 = load i32, i32* %7, align 4
  %109 = add nsw i32 %108, 1
  store i32 %109, i32* %7, align 4
  br label %110

110:                                              ; preds = %107
  br label %111

111:                                              ; preds = %110
  %112 = load i32, i32* %4, align 4
  %113 = add nsw i32 %112, 1
  store i32 %113, i32* %4, align 4
  br label %20

114:                                              ; preds = %97, %20
  %115 = load i32, i32* %7, align 4
  %116 = sext i32 %115 to i64
  %117 = load i32, i32* %3, align 4
  %118 = sext i32 %117 to i64
  %119 = getelementptr inbounds [101 x [100001 x i8]], [101 x [100001 x i8]]* %8, i64 0, i64 %118
  %120 = getelementptr inbounds [100001 x i8], [100001 x i8]* %119, i64 0, i64 0
  %121 = call i64 @strlen(i8* %120) #3
  %122 = icmp eq i64 %116, %121
  br i1 %122, label %123, label %125

123:                                              ; preds = %114
  %124 = call i32 (i8*, ...) @printf(i8* getelementptr inbounds ([4 x i8], [4 x i8]* @.str.3, i64 0, i64 0))
  br label %125

125:                                              ; preds = %123, %114
  br label %126

126:                                              ; preds = %125
  %127 = load i32, i32* %3, align 4
  %128 = add nsw i32 %127, 1
  store i32 %128, i32* %3, align 4
  br label %10

129:                                              ; preds = %10
  ret i32 0
}

declare dso_local i32 @__isoc99_scanf(i8*, ...) #1

; Function Attrs: nounwind readonly
declare dso_local i64 @strlen(i8*) #2

declare dso_local i32 @printf(i8*, ...) #1


!llvm.module.flags = !{!0}
!llvm.ident = !{!1}

!0 = !{i32 1, !"wchar_size", i32 4}
!1 = !{!"clang version 10.0.0-4ubuntu1 "}
